target datalayout = "e-m:e-p270:32:32-p271:32:32-p272:64:64-i64:64-i128:128-f80:128-n8:16:32:64-S128"
target triple = "x86_64-pc-linux-gnu"

%struct.lua_State = type { i8, i8, i8, i8, i8, i8, i8, ptr, ptr, ptr, ptr, ptr, ptr, ptr, ptr, i32, i32, i16, i16, i32, ptr, ptr, ptr, ptr, ptr }
%struct.CallInfo = type { ptr, ptr, ptr, ptr, i32, i32 }

@.str.3 = private unnamed_addr constant [15 x i8] c"stack overflow\00", align 1

; Function Attrs: mustprogress uwtable
define hidden void @_Z14luaD_reallocCIP9lua_Statei(ptr noundef %0, i32 noundef %1) #2 {
  %3 = alloca ptr, align 8
  %4 = alloca i32, align 4
  %5 = alloca ptr, align 8
  store ptr %0, ptr %3, align 8, !tbaa !20
  store i32 %1, ptr %4, align 4, !tbaa !23
  call void @llvm.lifetime.start.p0(i64 8, ptr %5) #15
  %6 = load ptr, ptr %3, align 8, !tbaa !20
  %7 = getelementptr inbounds nuw %struct.lua_State, ptr %6, i32 0, i32 14
  %8 = load ptr, ptr %7, align 8, !tbaa !67
  store ptr %8, ptr %5, align 8, !tbaa !45
  %9 = load ptr, ptr %3, align 8, !tbaa !20
  %10 = load ptr, ptr %3, align 8, !tbaa !20
  %11 = getelementptr inbounds nuw %struct.lua_State, ptr %10, i32 0, i32 14
  %12 = load ptr, ptr %11, align 8, !tbaa !67
  %13 = load ptr, ptr %3, align 8, !tbaa !20
  %14 = getelementptr inbounds nuw %struct.lua_State, ptr %13, i32 0, i32 16
  %15 = load i32, ptr %14, align 4, !tbaa !70
  %16 = sext i32 %15 to i64
  %17 = mul i64 %16, 40
  %18 = load i32, ptr %4, align 4, !tbaa !23
  %19 = sext i32 %18 to i64
  %20 = icmp ule i64 %19, 461168601842738790
  br i1 %20, label %21, label %25

21:                                               ; preds = %2
  %22 = load i32, ptr %4, align 4, !tbaa !23
  %23 = sext i32 %22 to i64
  %24 = mul i64 %23, 40
  br label %28

25:                                               ; preds = %2
  %26 = load ptr, ptr %3, align 8, !tbaa !20
  call void @_Z11luaM_toobigP9lua_State(ptr noundef %26) #17
  unreachable

27:                                               ; No predecessors!
  br label %28

28:                                               ; preds = %27, %21
  %29 = phi i64 [ %24, %21 ], [ -1, %27 ]
  %30 = load ptr, ptr %3, align 8, !tbaa !20
  %31 = getelementptr inbounds nuw %struct.lua_State, ptr %30, i32 0, i32 2
  %32 = load i8, ptr %31, align 2, !tbaa !55
  %33 = call noundef ptr @_Z13luaM_realloc_P9lua_StatePvmmh(ptr noundef %9, ptr noundef %12, i64 noundef %17, i64 noundef %29, i8 noundef zeroext %32)
  %34 = load ptr, ptr %3, align 8, !tbaa !20
  %35 = getelementptr inbounds nuw %struct.lua_State, ptr %34, i32 0, i32 14
  store ptr %33, ptr %35, align 8, !tbaa !67
  %36 = load i32, ptr %4, align 4, !tbaa !23
  %37 = load ptr, ptr %3, align 8, !tbaa !20
  %38 = getelementptr inbounds nuw %struct.lua_State, ptr %37, i32 0, i32 16
  store i32 %36, ptr %38, align 4, !tbaa !70
  %39 = load ptr, ptr %3, align 8, !tbaa !20
  %40 = getelementptr inbounds nuw %struct.lua_State, ptr %39, i32 0, i32 10
  %41 = load ptr, ptr %40, align 8, !tbaa !35
  %42 = load ptr, ptr %5, align 8, !tbaa !45
  %43 = ptrtoint ptr %41 to i64
  %44 = ptrtoint ptr %42 to i64
  %45 = sub i64 %43, %44
  %46 = sdiv exact i64 %45, 40
  %47 = load ptr, ptr %3, align 8, !tbaa !20
  %48 = getelementptr inbounds nuw %struct.lua_State, ptr %47, i32 0, i32 14
  %49 = load ptr, ptr %48, align 8, !tbaa !67
  %50 = getelementptr inbounds %struct.CallInfo, ptr %49, i64 %46
  %51 = load ptr, ptr %3, align 8, !tbaa !20
  %52 = getelementptr inbounds nuw %struct.lua_State, ptr %51, i32 0, i32 10
  store ptr %50, ptr %52, align 8, !tbaa !35
  %53 = load ptr, ptr %3, align 8, !tbaa !20
  %54 = getelementptr inbounds nuw %struct.lua_State, ptr %53, i32 0, i32 14
  %55 = load ptr, ptr %54, align 8, !tbaa !67
  %56 = load ptr, ptr %3, align 8, !tbaa !20
  %57 = getelementptr inbounds nuw %struct.lua_State, ptr %56, i32 0, i32 16
  %58 = load i32, ptr %57, align 4, !tbaa !70
  %59 = sext i32 %58 to i64
  %60 = getelementptr inbounds %struct.CallInfo, ptr %55, i64 %59
  %61 = getelementptr inbounds %struct.CallInfo, ptr %60, i64 -1
  %62 = load ptr, ptr %3, align 8, !tbaa !20
  %63 = getelementptr inbounds nuw %struct.lua_State, ptr %62, i32 0, i32 13
  store ptr %61, ptr %63, align 8, !tbaa !71
  call void @llvm.lifetime.end.p0(i64 8, ptr %5) #15
  ret void
}

; Function Attrs: mustprogress uwtable
define hidden noundef ptr @_Z11luaD_growCIP9lua_State(ptr noundef %0) #2 {
  %2 = alloca ptr, align 8
  %3 = alloca i32, align 4
  %4 = alloca i32, align 4
  store ptr %0, ptr %2, align 8, !tbaa !20
  call void @llvm.lifetime.start.p0(i64 4, ptr %3) #15
  store i32 22500, ptr %3, align 4, !tbaa !23
  %5 = load ptr, ptr %2, align 8, !tbaa !20
  %6 = getelementptr inbounds nuw %struct.lua_State, ptr %5, i32 0, i32 16
  %7 = load i32, ptr %6, align 4, !tbaa !70
  %8 = icmp sge i32 %7, 22500
  br i1 %8, label %9, label %11

9:                                                ; preds = %1
  %10 = load ptr, ptr %2, align 8, !tbaa !20
  call void @_Z10luaD_throwP9lua_Statei(ptr noundef %10, i32 noundef 5) #17
  unreachable

11:                                               ; preds = %1
  call void @llvm.lifetime.start.p0(i64 4, ptr %4) #15
  %12 = load ptr, ptr %2, align 8, !tbaa !20
  %13 = getelementptr inbounds nuw %struct.lua_State, ptr %12, i32 0, i32 16
  %14 = load i32, ptr %13, align 4, !tbaa !70
  %15 = mul nsw i32 %14, 2
  store i32 %15, ptr %4, align 4, !tbaa !23
  %16 = load ptr, ptr %2, align 8, !tbaa !20
  %17 = load ptr, ptr %2, align 8, !tbaa !20
  %18 = getelementptr inbounds nuw %struct.lua_State, ptr %17, i32 0, i32 16
  %19 = load i32, ptr %18, align 4, !tbaa !70
  %20 = icmp sge i32 %19, 20000
  br i1 %20, label %21, label %22

21:                                               ; preds = %11
  br label %30

22:                                               ; preds = %11
  %23 = load i32, ptr %4, align 4, !tbaa !23
  %24 = icmp slt i32 %23, 20000
  br i1 %24, label %25, label %27

25:                                               ; preds = %22
  %26 = load i32, ptr %4, align 4, !tbaa !23
  br label %28

27:                                               ; preds = %22
  br label %28

28:                                               ; preds = %27, %25
  %29 = phi i32 [ %26, %25 ], [ 20000, %27 ]
  br label %30

30:                                               ; preds = %28, %21
  %31 = phi i32 [ 22500, %21 ], [ %29, %28 ]
  call void @_Z14luaD_reallocCIP9lua_Statei(ptr noundef %16, i32 noundef %31)
  %32 = load ptr, ptr %2, align 8, !tbaa !20
  %33 = getelementptr inbounds nuw %struct.lua_State, ptr %32, i32 0, i32 16
  %34 = load i32, ptr %33, align 4, !tbaa !70
  %35 = icmp sgt i32 %34, 20000
  br i1 %35, label %36, label %38

36:                                               ; preds = %30
  %37 = load ptr, ptr %2, align 8, !tbaa !20
  call void (ptr, ptr, ...) @_Z14luaG_runerrorLP9lua_StatePKcz(ptr noundef %37, ptr noundef @.str.3) #17
  unreachable

38:                                               ; preds = %30
  %39 = load ptr, ptr %2, align 8, !tbaa !20
  %40 = getelementptr inbounds nuw %struct.lua_State, ptr %39, i32 0, i32 10
  %41 = load ptr, ptr %40, align 8, !tbaa !35
  %42 = getelementptr inbounds nuw %struct.CallInfo, ptr %41, i32 1
  store ptr %42, ptr %40, align 8, !tbaa !35
  call void @llvm.lifetime.end.p0(i64 4, ptr %4) #15
  call void @llvm.lifetime.end.p0(i64 4, ptr %3) #15
  ret ptr %42
}