; Function Attrs: mustprogress uwtable
define hidden noundef nonnull ptr @_Z11luaD_growCIP9lua_State(ptr noundef %0) local_unnamed_addr #0 {
  %2 = getelementptr inbounds nuw i8, ptr %0, i64 76
  %3 = load i32, ptr %2, align 4, !tbaa !53
  %4 = icmp sgt i32 %3, 22499
  br i1 %4, label %5, label %6

5:                                                ; preds = %1
  tail call void @_Z10luaD_throwP9lua_Statei(ptr noundef nonnull %0, i32 noundef 5) #18
  unreachable

6:                                                ; preds = %1
  %7 = shl nsw i32 %3, 1
  %8 = icmp sgt i32 %3, 19999
  %9 = tail call i32 @llvm.smin.i32(i32 %7, i32 20000)
  %10 = select i1 %8, i32 22500, i32 %9
  %11 = icmp sgt i32 %10, -1
  br i1 %11, label %_Z14luaD_reallocCIP9lua_Statei.exit, label %12

12:                                               ; preds = %6
  tail call void @_Z11luaM_toobigP9lua_State(ptr noundef nonnull %0) #18
  unreachable

_Z14luaD_reallocCIP9lua_Statei.exit:              ; preds = %6
  %13 = zext nneg i32 %10 to i64
  %14 = sext i32 %3 to i64
  %15 = mul nsw i64 %14, 40
  %16 = getelementptr inbounds nuw i8, ptr %0, i64 64
  %17 = load ptr, ptr %16, align 8, !tbaa !43
  %18 = mul nuw nsw i64 %13, 40
  %19 = getelementptr inbounds nuw i8, ptr %0, i64 2
  %20 = load i8, ptr %19, align 2, !tbaa !40
  %21 = tail call noundef ptr @_Z13luaM_realloc_P9lua_StatePvmmh(ptr noundef nonnull %0, ptr noundef %17, i64 noundef %15, i64 noundef %18, i8 noundef zeroext %20)
  store ptr %21, ptr %16, align 8, !tbaa !43
  store i32 %10, ptr %2, align 4, !tbaa !53
  %22 = getelementptr inbounds nuw i8, ptr %0, i64 32
  %23 = load ptr, ptr %22, align 8, !tbaa !22
  %24 = ptrtoint ptr %23 to i64
  %25 = ptrtoint ptr %17 to i64
  %26 = sub i64 %24, %25
  %27 = getelementptr inbounds i8, ptr %21, i64 %26
  store ptr %27, ptr %22, align 8, !tbaa !22
  %28 = getelementptr inbounds nuw %struct.CallInfo, ptr %21, i64 %13
  %29 = getelementptr inbounds i8, ptr %28, i64 -40
  %30 = getelementptr inbounds nuw i8, ptr %0, i64 56
  store ptr %29, ptr %30, align 8, !tbaa !54
  br i1 %8, label %31, label %32

31:                                               ; preds = %_Z14luaD_reallocCIP9lua_Statei.exit
  tail call void (ptr, ptr, ...) @_Z14luaG_runerrorLP9lua_StatePKcz(ptr noundef nonnull %0, ptr noundef nonnull @.str.3) #18
  unreachable

32:                                               ; preds = %_Z14luaD_reallocCIP9lua_Statei.exit
  %33 = getelementptr inbounds nuw i8, ptr %27, i64 40
  store ptr %33, ptr %22, align 8, !tbaa !22
  ret ptr %33
}